; ModuleID = '24/2117.c'
source_filename = "24/2117.c"
target datalayout = "e-m:e-p270:32:32-p271:32:32-p272:64:64-i64:64-f80:128-n8:16:32:64-S128"
target triple = "x86_64-pc-linux-gnu"

@.str = private unnamed_addr constant [3 x i8] c"%c\00", align 1
@.str.1 = private unnamed_addr constant [2 x i8] c"\0A\00", align 1

; Function Attrs: noinline nounwind uwtable
define dso_local i32 @main() #0 {
  %1 = alloca i32, align 4
  %2 = alloca [2001 x i8], align 16
  %3 = alloca i32, align 4
  %4 = alloca i32, align 4
  %5 = alloca i32, align 4
  %6 = alloca i32, align 4
  %7 = alloca i32, align 4
  %8 = alloca i32, align 4
  %9 = alloca i32, align 4
  %10 = alloca i32, align 4
  %11 = alloca i32, align 4
  %12 = alloca i32, align 4
  store i32 0, i32* %1, align 4
  store i32 0, i32* %9, align 4
  store i32 100, i32* %10, align 4
  %13 = getelementptr inbounds [2001 x i8], [2001 x i8]* %2, i64 0, i64 0
  %14 = call i32 (i8*, ...) bitcast (i32 (...)* @gets to i32 (i8*, ...)*)(i8* %13)
  %15 = getelementptr inbounds [2001 x i8], [2001 x i8]* %2, i64 0, i64 0
  %16 = call i64 @strlen(i8* %15) #3
  %17 = trunc i64 %16 to i32
  store i32 %17, i32* %8, align 4
  store i32 0, i32* %7, align 4
  br label %18

18:                                               ; preds = %76, %0
  %19 = load i32, i32* %7, align 4
  %20 = load i32, i32* %8, align 4
  %21 = icmp slt i32 %19, %20
  br i1 %21, label %22, label %79

22:                                               ; preds = %18
  br label %23

23:                                               ; preds = %30, %22
  %24 = load i32, i32* %7, align 4
  %25 = sext i32 %24 to i64
  %26 = getelementptr inbounds [2001 x i8], [2001 x i8]* %2, i64 0, i64 %25
  %27 = load i8, i8* %26, align 1
  %28 = sext i8 %27 to i32
  %29 = icmp eq i32 %28, 32
  br i1 %29, label %30, label %33

30:                                               ; preds = %23
  %31 = load i32, i32* %7, align 4
  %32 = add nsw i32 %31, 1
  store i32 %32, i32* %7, align 4
  br label %23

33:                                               ; preds = %23
  %34 = load i32, i32* %7, align 4
  store i32 %34, i32* %3, align 4
  br label %35

35:                                               ; preds = %51, %33
  %36 = load i32, i32* %7, align 4
  %37 = sext i32 %36 to i64
  %38 = getelementptr inbounds [2001 x i8], [2001 x i8]* %2, i64 0, i64 %37
  %39 = load i8, i8* %38, align 1
  %40 = sext i8 %39 to i32
  %41 = icmp ne i32 %40, 0
  br i1 %41, label %42, label %49

42:                                               ; preds = %35
  %43 = load i32, i32* %7, align 4
  %44 = sext i32 %43 to i64
  %45 = getelementptr inbounds [2001 x i8], [2001 x i8]* %2, i64 0, i64 %44
  %46 = load i8, i8* %45, align 1
  %47 = sext i8 %46 to i32
  %48 = icmp ne i32 %47, 32
  br label %49

49:                                               ; preds = %42, %35
  %50 = phi i1 [ false, %35 ], [ %48, %42 ]
  br i1 %50, label %51, label %54

51:                                               ; preds = %49
  %52 = load i32, i32* %7, align 4
  %53 = add nsw i32 %52, 1
  store i32 %53, i32* %7, align 4
  br label %35

54:                                               ; preds = %49
  %55 = load i32, i32* %7, align 4
  store i32 %55, i32* %4, align 4
  %56 = load i32, i32* %4, align 4
  %57 = load i32, i32* %3, align 4
  %58 = sub nsw i32 %56, %57
  store i32 %58, i32* %5, align 4
  %59 = load i32, i32* %4, align 4
  %60 = load i32, i32* %3, align 4
  %61 = sub nsw i32 %59, %60
  store i32 %61, i32* %6, align 4
  %62 = load i32, i32* %5, align 4
  %63 = load i32, i32* %9, align 4
  %64 = icmp sgt i32 %62, %63
  br i1 %64, label %65, label %68

65:                                               ; preds = %54
  %66 = load i32, i32* %5, align 4
  store i32 %66, i32* %9, align 4
  %67 = load i32, i32* %3, align 4
  store i32 %67, i32* %11, align 4
  br label %68

68:                                               ; preds = %65, %54
  %69 = load i32, i32* %6, align 4
  %70 = load i32, i32* %10, align 4
  %71 = icmp slt i32 %69, %70
  br i1 %71, label %72, label %75

72:                                               ; preds = %68
  %73 = load i32, i32* %6, align 4
  store i32 %73, i32* %10, align 4
  %74 = load i32, i32* %3, align 4
  store i32 %74, i32* %12, align 4
  br label %75

75:                                               ; preds = %72, %68
  br label %76

76:                                               ; preds = %75
  %77 = load i32, i32* %7, align 4
  %78 = add nsw i32 %77, 1
  store i32 %78, i32* %7, align 4
  br label %18

79:                                               ; preds = %18
  br label %80

80:                                               ; preds = %96, %79
  %81 = load i32, i32* %11, align 4
  %82 = sext i32 %81 to i64
  %83 = getelementptr inbounds [2001 x i8], [2001 x i8]* %2, i64 0, i64 %82
  %84 = load i8, i8* %83, align 1
  %85 = sext i8 %84 to i32
  %86 = icmp ne i32 %85, 0
  br i1 %86, label %87, label %94

87:                                               ; preds = %80
  %88 = load i32, i32* %11, align 4
  %89 = sext i32 %88 to i64
  %90 = getelementptr inbounds [2001 x i8], [2001 x i8]* %2, i64 0, i64 %89
  %91 = load i8, i8* %90, align 1
  %92 = sext i8 %91 to i32
  %93 = icmp ne i32 %92, 32
  br label %94

94:                                               ; preds = %87, %80
  %95 = phi i1 [ false, %80 ], [ %93, %87 ]
  br i1 %95, label %96, label %105

96:                                               ; preds = %94
  %97 = load i32, i32* %11, align 4
  %98 = sext i32 %97 to i64
  %99 = getelementptr inbounds [2001 x i8], [2001 x i8]* %2, i64 0, i64 %98
  %100 = load i8, i8* %99, align 1
  %101 = sext i8 %100 to i32
  %102 = call i32 (i8*, ...) @printf(i8* getelementptr inbounds ([3 x i8], [3 x i8]* @.str, i64 0, i64 0), i32 %101)
  %103 = load i32, i32* %11, align 4
  %104 = add nsw i32 %103, 1
  store i32 %104, i32* %11, align 4
  br label %80

105:                                              ; preds = %94
  %106 = call i32 (i8*, ...) @printf(i8* getelementptr inbounds ([2 x i8], [2 x i8]* @.str.1, i64 0, i64 0))
  br label %107

107:                                              ; preds = %123, %105
  %108 = load i32, i32* %12, align 4
  %109 = sext i32 %108 to i64
  %110 = getelementptr inbounds [2001 x i8], [2001 x i8]* %2, i64 0, i64 %109
  %111 = load i8, i8* %110, align 1
  %112 = sext i8 %111 to i32
  %113 = icmp ne i32 %112, 0
  br i1 %113, label %114, label %121

114:                                              ; preds = %107
  %115 = load i32, i32* %12, align 4
  %116 = sext i32 %115 to i64
  %117 = getelementptr inbounds [2001 x i8], [2001 x i8]* %2, i64 0, i64 %116
  %118 = load i8, i8* %117, align 1
  %119 = sext i8 %118 to i32
  %120 = icmp ne i32 %119, 32
  br label %121

121:                                              ; preds = %114, %107
  %122 = phi i1 [ false, %107 ], [ %120, %114 ]
  br i1 %122, label %123, label %132

123:                                              ; preds = %121
  %124 = load i32, i32* %12, align 4
  %125 = sext i32 %124 to i64
  %126 = getelementptr inbounds [2001 x i8], [2001 x i8]* %2, i64 0, i64 %125
  %127 = load i8, i8* %126, align 1
  %128 = sext i8 %127 to i32
  %129 = call i32 (i8*, ...) @printf(i8* getelementptr inbounds ([3 x i8], [3 x i8]* @.str, i64 0, i64 0), i32 %128)
  %130 = load i32, i32* %12, align 4
  %131 = add nsw i32 %130, 1
  store i32 %131, i32* %12, align 4
  br label %107

132:                                              ; preds = %121
  %133 = call i32 (i8*, ...) @printf(i8* getelementptr inbounds ([2 x i8], [2 x i8]* @.str.1, i64 0, i64 0))
  ret i32 0
}

declare dso_local i32 @gets(...) #1

; Function Attrs: nounwind readonly
declare dso_local i64 @strlen(i8*) #2

declare dso_local i32 @printf(i8*, ...) #1


!llvm.module.flags = !{!0}
!llvm.ident = !{!1}

!0 = !{i32 1, !"wchar_size", i32 4}
!1 = !{!"clang version 10.0.0-4ubuntu1 "}
